target datalayout = "e-m:e-p270:32:32-p271:32:32-p272:64:64-i64:64-i128:128-f80:128-n8:16:32:64-S128"
target triple = "x86_64-pc-linux-gnu"

; Function Attrs: nounwind uwtable
define i32 @ossl_ec_group_fromdata(ptr noundef %0, ptr noundef %1) #0 {
  %3 = alloca i32, align 4
  %4 = alloca ptr, align 8
  %5 = alloca ptr, align 8
  %6 = alloca i32, align 4
  %7 = alloca ptr, align 8
  %8 = alloca i32, align 4
  store ptr %0, ptr %4, align 8, !tbaa !18
  store ptr %1, ptr %5, align 8, !tbaa !27
  call void @llvm.lifetime.start.p0(i64 4, ptr %6) #3
  store i32 0, ptr %6, align 4, !tbaa !16
  call void @llvm.lifetime.start.p0(i64 8, ptr %7) #3
  store ptr null, ptr %7, align 8, !tbaa !23
  %9 = load ptr, ptr %4, align 8, !tbaa !18
  %10 = icmp eq ptr %9, null
  br i1 %10, label %11, label %12

11:                                               ; preds = %2
  store i32 0, ptr %3, align 4
  store i32 1, ptr %8, align 4
  br label %28

12:                                               ; preds = %2
  %13 = load ptr, ptr %5, align 8, !tbaa !27
  %14 = load ptr, ptr %4, align 8, !tbaa !18
  %15 = call ptr @ossl_ec_key_get_libctx(ptr noundef %14)
  %16 = load ptr, ptr %4, align 8, !tbaa !18
  %17 = call ptr @ossl_ec_key_get0_propq(ptr noundef %16)
  %18 = call ptr @EC_GROUP_new_from_params(ptr noundef %13, ptr noundef %15, ptr noundef %17)
  store ptr %18, ptr %7, align 8, !tbaa !23
  %19 = load ptr, ptr %4, align 8, !tbaa !18
  %20 = load ptr, ptr %7, align 8, !tbaa !23
  %21 = call i32 @EC_KEY_set_group(ptr noundef %19, ptr noundef %20)
  %22 = icmp ne i32 %21, 0
  br i1 %22, label %24, label %23

23:                                               ; preds = %12
  br label %25

24:                                               ; preds = %12
  store i32 1, ptr %6, align 4, !tbaa !16
  br label %25

25:                                               ; preds = %24, %23
  %26 = load ptr, ptr %7, align 8, !tbaa !23
  call void @EC_GROUP_free(ptr noundef %26)
  %27 = load i32, ptr %6, align 4, !tbaa !16
  store i32 %27, ptr %3, align 4
  store i32 1, ptr %8, align 4
  br label %28

28:                                               ; preds = %25, %11
  call void @llvm.lifetime.end.p0(i64 8, ptr %7) #3
  call void @llvm.lifetime.end.p0(i64 4, ptr %6) #3
  %29 = load i32, ptr %3, align 4
  ret i32 %29
}