; Function Attrs: nounwind uwtable
define range(i32 0, 2) i32 @ossl_ec_group_fromdata(ptr noundef %0, ptr noundef %1) local_unnamed_addr #0 {
  %3 = icmp eq ptr %0, null
  br i1 %3, label %9, label %4

4:                                                ; preds = %2
  %5 = tail call ptr @ossl_ec_key_get_libctx(ptr noundef nonnull %0) #4
  %6 = tail call ptr @ossl_ec_key_get0_propq(ptr noundef nonnull %0) #4
  %7 = tail call ptr @EC_GROUP_new_from_params(ptr noundef %1, ptr noundef %5, ptr noundef %6) #4
  %8 = tail call i32 @EC_KEY_set_group(ptr noundef nonnull %0, ptr noundef %7) #4
  %.not = icmp ne i32 %8, 0
  %spec.select = zext i1 %.not to i32
  tail call void @EC_GROUP_free(ptr noundef %7) #4
  br label %9

9:                                                ; preds = %2, %4
  %.08 = phi i32 [ %spec.select, %4 ], [ 0, %2 ]
  ret i32 %.08
}